target datalayout = "e-m:e-p270:32:32-p271:32:32-p272:64:64-i64:64-i128:128-f80:128-n8:16:32:64-S128"
target triple = "x86_64-pc-linux-gnu"

%struct.EVP_AES_OCB_CTX = type { %union.anon.7, %union.anon.8, i32, i32, %struct.ocb128_context, ptr, [16 x i8], [16 x i8], [16 x i8], i32, i32, i32, i32 }
%union.anon.7 = type { double, [240 x i8] }
%union.anon.8 = type { double, [240 x i8] }
%struct.ocb128_context = type { ptr, ptr, ptr, ptr, ptr, i64, i64, %union.OCB_BLOCK, %union.OCB_BLOCK, ptr, %struct.anon }
%union.OCB_BLOCK = type { [2 x i64] }
%struct.anon = type { i64, i64, %union.OCB_BLOCK, %union.OCB_BLOCK, %union.OCB_BLOCK, %union.OCB_BLOCK }

@.str = private unnamed_addr constant [30 x i8] c"../openssl/crypto/evp/e_aes.c\00", align 1
@__func__.aesni_ocb_init_key = private unnamed_addr constant [19 x i8] c"aesni_ocb_init_key\00", align 1

; Function Attrs: nounwind uwtable
define internal i32 @aesni_ocb_init_key(ptr noundef %0, ptr noundef %1, ptr noundef %2, i32 noundef %3) #0 {
  %5 = alloca i32, align 4
  %6 = alloca ptr, align 8
  %7 = alloca ptr, align 8
  %8 = alloca ptr, align 8
  %9 = alloca i32, align 4
  %10 = alloca ptr, align 8
  %11 = alloca i32, align 4
  %12 = alloca i32, align 4
  store ptr %0, ptr %6, align 8, !tbaa !7
  store ptr %1, ptr %7, align 8, !tbaa !10
  store ptr %2, ptr %8, align 8, !tbaa !10
  store i32 %3, ptr %9, align 4, !tbaa !3
  call void @llvm.lifetime.start.p0(i64 8, ptr %10) #4
  %13 = load ptr, ptr %6, align 8, !tbaa !7
  %14 = call ptr @EVP_CIPHER_CTX_get_cipher_data(ptr noundef %13)
  store ptr %14, ptr %10, align 8, !tbaa !12
  %15 = load ptr, ptr %8, align 8, !tbaa !10
  %16 = icmp eq ptr %15, null
  br i1 %16, label %17, label %21

17:                                               ; preds = %4
  %18 = load ptr, ptr %7, align 8, !tbaa !10
  %19 = icmp eq ptr %18, null
  br i1 %19, label %20, label %21

20:                                               ; preds = %17
  store i32 1, ptr %5, align 4
  store i32 1, ptr %11, align 4
  br label %127

21:                                               ; preds = %17, %4
  %22 = load ptr, ptr %7, align 8, !tbaa !10
  %23 = icmp ne ptr %22, null
  br i1 %23, label %24, label %96

24:                                               ; preds = %21
  call void @llvm.lifetime.start.p0(i64 4, ptr %12) #4
  %25 = load ptr, ptr %6, align 8, !tbaa !7
  %26 = call i32 @EVP_CIPHER_CTX_get_key_length(ptr noundef %25)
  %27 = mul nsw i32 %26, 8
  store i32 %27, ptr %12, align 4, !tbaa !3
  %28 = load i32, ptr %12, align 4, !tbaa !3
  %29 = icmp sle i32 %28, 0
  br i1 %29, label %30, label %31

30:                                               ; preds = %24
  call void @ERR_new()
  call void @ERR_set_debug(ptr noundef @.str, i32 noundef 373, ptr noundef @__func__.aesni_ocb_init_key)
  call void (i32, i32, ptr, ...) @ERR_set_error(i32 noundef 6, i32 noundef 130, ptr noundef null)
  store i32 0, ptr %5, align 4
  store i32 1, ptr %11, align 4
  br label %93

31:                                               ; preds = %24
  br label %32

32:                                               ; preds = %31
  %33 = load ptr, ptr %7, align 8, !tbaa !10
  %34 = load i32, ptr %12, align 4, !tbaa !3
  %35 = load ptr, ptr %10, align 8, !tbaa !12
  %36 = getelementptr inbounds nuw %struct.EVP_AES_OCB_CTX, ptr %35, i32 0, i32 0
  %37 = call i32 @aesni_set_encrypt_key(ptr noundef %33, i32 noundef %34, ptr noundef %36)
  %38 = load ptr, ptr %7, align 8, !tbaa !10
  %39 = load i32, ptr %12, align 4, !tbaa !3
  %40 = load ptr, ptr %10, align 8, !tbaa !12
  %41 = getelementptr inbounds nuw %struct.EVP_AES_OCB_CTX, ptr %40, i32 0, i32 1
  %42 = call i32 @aesni_set_decrypt_key(ptr noundef %38, i32 noundef %39, ptr noundef %41)
  %43 = load ptr, ptr %10, align 8, !tbaa !12
  %44 = getelementptr inbounds nuw %struct.EVP_AES_OCB_CTX, ptr %43, i32 0, i32 4
  %45 = load ptr, ptr %10, align 8, !tbaa !12
  %46 = getelementptr inbounds nuw %struct.EVP_AES_OCB_CTX, ptr %45, i32 0, i32 0
  %47 = load ptr, ptr %10, align 8, !tbaa !12
  %48 = getelementptr inbounds nuw %struct.EVP_AES_OCB_CTX, ptr %47, i32 0, i32 1
  %49 = load i32, ptr %9, align 4, !tbaa !3
  %50 = icmp ne i32 %49, 0
  %51 = select i1 %50, ptr @aesni_ocb_encrypt, ptr @aesni_ocb_decrypt
  %52 = call i32 @CRYPTO_ocb128_init(ptr noundef %44, ptr noundef %46, ptr noundef %48, ptr noundef @aesni_encrypt, ptr noundef @aesni_decrypt, ptr noundef %51)
  %53 = icmp ne i32 %52, 0
  br i1 %53, label %55, label %54

54:                                               ; preds = %32
  store i32 0, ptr %5, align 4
  store i32 1, ptr %11, align 4
  br label %93

55:                                               ; preds = %32
  br label %56

56:                                               ; preds = %55
  br label %57

57:                                               ; preds = %56
  %58 = load ptr, ptr %8, align 8, !tbaa !10
  %59 = icmp eq ptr %58, null
  br i1 %59, label %60, label %69

60:                                               ; preds = %57
  %61 = load ptr, ptr %10, align 8, !tbaa !12
  %62 = getelementptr inbounds nuw %struct.EVP_AES_OCB_CTX, ptr %61, i32 0, i32 3
  %63 = load i32, ptr %62, align 4, !tbaa !67
  %64 = icmp ne i32 %63, 0
  br i1 %64, label %65, label %69

65:                                               ; preds = %60
  %66 = load ptr, ptr %10, align 8, !tbaa !12
  %67 = getelementptr inbounds nuw %struct.EVP_AES_OCB_CTX, ptr %66, i32 0, i32 5
  %68 = load ptr, ptr %67, align 8, !tbaa !71
  store ptr %68, ptr %8, align 8, !tbaa !10
  br label %69

69:                                               ; preds = %65, %60, %57
  %70 = load ptr, ptr %8, align 8, !tbaa !10
  %71 = icmp ne ptr %70, null
  br i1 %71, label %72, label %90

72:                                               ; preds = %69
  %73 = load ptr, ptr %10, align 8, !tbaa !12
  %74 = getelementptr inbounds nuw %struct.EVP_AES_OCB_CTX, ptr %73, i32 0, i32 4
  %75 = load ptr, ptr %8, align 8, !tbaa !10
  %76 = load ptr, ptr %10, align 8, !tbaa !12
  %77 = getelementptr inbounds nuw %struct.EVP_AES_OCB_CTX, ptr %76, i32 0, i32 11
  %78 = load i32, ptr %77, align 8, !tbaa !72
  %79 = sext i32 %78 to i64
  %80 = load ptr, ptr %10, align 8, !tbaa !12
  %81 = getelementptr inbounds nuw %struct.EVP_AES_OCB_CTX, ptr %80, i32 0, i32 12
  %82 = load i32, ptr %81, align 4, !tbaa !73
  %83 = sext i32 %82 to i64
  %84 = call i32 @CRYPTO_ocb128_setiv(ptr noundef %74, ptr noundef %75, i64 noundef %79, i64 noundef %83)
  %85 = icmp ne i32 %84, 1
  br i1 %85, label %86, label %87

86:                                               ; preds = %72
  store i32 0, ptr %5, align 4
  store i32 1, ptr %11, align 4
  br label %93

87:                                               ; preds = %72
  %88 = load ptr, ptr %10, align 8, !tbaa !12
  %89 = getelementptr inbounds nuw %struct.EVP_AES_OCB_CTX, ptr %88, i32 0, i32 3
  store i32 1, ptr %89, align 4, !tbaa !67
  br label %90

90:                                               ; preds = %87, %69
  %91 = load ptr, ptr %10, align 8, !tbaa !12
  %92 = getelementptr inbounds nuw %struct.EVP_AES_OCB_CTX, ptr %91, i32 0, i32 2
  store i32 1, ptr %92, align 8, !tbaa !74
  store i32 0, ptr %11, align 4
  br label %93

93:                                               ; preds = %90, %86, %54, %30
  call void @llvm.lifetime.end.p0(i64 4, ptr %12) #4
  %94 = load i32, ptr %11, align 4
  switch i32 %94, label %127 [
    i32 0, label %95
  ]

95:                                               ; preds = %93
  br label %126

96:                                               ; preds = %21
  %97 = load ptr, ptr %10, align 8, !tbaa !12
  %98 = getelementptr inbounds nuw %struct.EVP_AES_OCB_CTX, ptr %97, i32 0, i32 2
  %99 = load i32, ptr %98, align 8, !tbaa !74
  %100 = icmp ne i32 %99, 0
  br i1 %100, label %101, label %114

101:                                              ; preds = %96
  %102 = load ptr, ptr %10, align 8, !tbaa !12
  %103 = getelementptr inbounds nuw %struct.EVP_AES_OCB_CTX, ptr %102, i32 0, i32 4
  %104 = load ptr, ptr %8, align 8, !tbaa !10
  %105 = load ptr, ptr %10, align 8, !tbaa !12
  %106 = getelementptr inbounds nuw %struct.EVP_AES_OCB_CTX, ptr %105, i32 0, i32 11
  %107 = load i32, ptr %106, align 8, !tbaa !72
  %108 = sext i32 %107 to i64
  %109 = load ptr, ptr %10, align 8, !tbaa !12
  %110 = getelementptr inbounds nuw %struct.EVP_AES_OCB_CTX, ptr %109, i32 0, i32 12
  %111 = load i32, ptr %110, align 4, !tbaa !73
  %112 = sext i32 %111 to i64
  %113 = call i32 @CRYPTO_ocb128_setiv(ptr noundef %103, ptr noundef %104, i64 noundef %108, i64 noundef %112)
  br label %123

114:                                              ; preds = %96
  %115 = load ptr, ptr %10, align 8, !tbaa !12
  %116 = getelementptr inbounds nuw %struct.EVP_AES_OCB_CTX, ptr %115, i32 0, i32 5
  %117 = load ptr, ptr %116, align 8, !tbaa !71
  %118 = load ptr, ptr %8, align 8, !tbaa !10
  %119 = load ptr, ptr %10, align 8, !tbaa !12
  %120 = getelementptr inbounds nuw %struct.EVP_AES_OCB_CTX, ptr %119, i32 0, i32 11
  %121 = load i32, ptr %120, align 8, !tbaa !72
  %122 = sext i32 %121 to i64
  call void @llvm.memcpy.p0.p0.i64(ptr align 1 %117, ptr align 1 %118, i64 %122, i1 false)
  br label %123

123:                                              ; preds = %114, %101
  %124 = load ptr, ptr %10, align 8, !tbaa !12
  %125 = getelementptr inbounds nuw %struct.EVP_AES_OCB_CTX, ptr %124, i32 0, i32 3
  store i32 1, ptr %125, align 4, !tbaa !67
  br label %126

126:                                              ; preds = %123, %95
  store i32 1, ptr %5, align 4
  store i32 1, ptr %11, align 4
  br label %127

127:                                              ; preds = %126, %93, %20
  call void @llvm.lifetime.end.p0(i64 8, ptr %10) #4
  %128 = load i32, ptr %5, align 4
  ret i32 %128
}