; Function Attrs: nounwind uwtable
define internal range(i32 0, 2) i32 @aesni_ocb_init_key(ptr noundef %0, ptr noundef %1, ptr noundef %2, i32 noundef %3) #2 {
  %5 = tail call ptr @EVP_CIPHER_CTX_get_cipher_data(ptr noundef %0) #8
  %6 = icmp eq ptr %2, null
  %7 = icmp eq ptr %1, null
  %or.cond = and i1 %7, %6
  br i1 %or.cond, label %.critedge, label %8

8:                                                ; preds = %4
  br i1 %7, label %38, label %9

9:                                                ; preds = %8
  %10 = tail call i32 @EVP_CIPHER_CTX_get_key_length(ptr noundef %0) #8
  %11 = icmp slt i32 %10, 1
  br i1 %11, label %12, label %13

12:                                               ; preds = %9
  tail call void @ERR_new() #8
  tail call void @ERR_set_debug(ptr noundef nonnull @.str, i32 noundef 373, ptr noundef nonnull @__func__.aesni_ocb_init_key) #8
  tail call void (i32, i32, ptr, ...) @ERR_set_error(i32 noundef 6, i32 noundef 130, ptr noundef null) #8
  br label %.critedge

13:                                               ; preds = %9
  %14 = shl nsw i32 %10, 3
  %15 = tail call i32 @aesni_set_encrypt_key(ptr noundef nonnull %1, i32 noundef %14, ptr noundef %5) #8
  %16 = getelementptr inbounds nuw i8, ptr %5, i64 248
  %17 = tail call i32 @aesni_set_decrypt_key(ptr noundef nonnull %1, i32 noundef %14, ptr noundef nonnull %16) #8
  %18 = getelementptr inbounds nuw i8, ptr %5, i64 504
  %.not43 = icmp eq i32 %3, 0
  %19 = select i1 %.not43, ptr @aesni_ocb_decrypt, ptr @aesni_ocb_encrypt
  %20 = tail call i32 @CRYPTO_ocb128_init(ptr noundef nonnull %18, ptr noundef %5, ptr noundef nonnull %16, ptr noundef nonnull @aesni_encrypt, ptr noundef nonnull @aesni_decrypt, ptr noundef nonnull %19) #8
  %.not44 = icmp eq i32 %20, 0
  br i1 %.not44, label %.critedge, label %21

21:                                               ; preds = %13
  br i1 %6, label %22, label %.thread50

22:                                               ; preds = %21
  %23 = getelementptr inbounds nuw i8, ptr %5, i64 500
  %24 = load i32, ptr %23, align 4, !tbaa !58
  %.not45 = icmp eq i32 %24, 0
  br i1 %.not45, label %.thread, label %25

25:                                               ; preds = %22
  %26 = getelementptr inbounds nuw i8, ptr %5, i64 680
  %27 = load ptr, ptr %26, align 8, !tbaa !62
  %.not46 = icmp eq ptr %27, null
  br i1 %.not46, label %.thread, label %.thread50

.thread50:                                        ; preds = %21, %25
  %.03853 = phi ptr [ %27, %25 ], [ %2, %21 ]
  %28 = getelementptr inbounds nuw i8, ptr %5, i64 744
  %29 = load i32, ptr %28, align 8, !tbaa !63
  %30 = sext i32 %29 to i64
  %31 = getelementptr inbounds nuw i8, ptr %5, i64 748
  %32 = load i32, ptr %31, align 4, !tbaa !64
  %33 = sext i32 %32 to i64
  %34 = tail call i32 @CRYPTO_ocb128_setiv(ptr noundef nonnull %18, ptr noundef nonnull %.03853, i64 noundef %30, i64 noundef %33) #8
  %.not47 = icmp eq i32 %34, 1
  br i1 %.not47, label %35, label %.critedge

35:                                               ; preds = %.thread50
  %36 = getelementptr inbounds nuw i8, ptr %5, i64 500
  store i32 1, ptr %36, align 4, !tbaa !58
  br label %.thread

.thread:                                          ; preds = %22, %35, %25
  %37 = getelementptr inbounds nuw i8, ptr %5, i64 496
  store i32 1, ptr %37, align 8, !tbaa !65
  br label %.critedge

38:                                               ; preds = %8
  %39 = getelementptr inbounds nuw i8, ptr %5, i64 496
  %40 = load i32, ptr %39, align 8, !tbaa !65
  %.not42 = icmp eq i32 %40, 0
  br i1 %.not42, label %50, label %41

41:                                               ; preds = %38
  %42 = getelementptr inbounds nuw i8, ptr %5, i64 504
  %43 = getelementptr inbounds nuw i8, ptr %5, i64 744
  %44 = load i32, ptr %43, align 8, !tbaa !63
  %45 = sext i32 %44 to i64
  %46 = getelementptr inbounds nuw i8, ptr %5, i64 748
  %47 = load i32, ptr %46, align 4, !tbaa !64
  %48 = sext i32 %47 to i64
  %49 = tail call i32 @CRYPTO_ocb128_setiv(ptr noundef nonnull %42, ptr noundef %2, i64 noundef %45, i64 noundef %48) #8
  br label %56

50:                                               ; preds = %38
  %51 = getelementptr inbounds nuw i8, ptr %5, i64 680
  %52 = load ptr, ptr %51, align 8, !tbaa !62
  %53 = getelementptr inbounds nuw i8, ptr %5, i64 744
  %54 = load i32, ptr %53, align 8, !tbaa !63
  %55 = sext i32 %54 to i64
  tail call void @llvm.memcpy.p0.p0.i64(ptr align 1 %52, ptr align 1 %2, i64 %55, i1 false)
  br label %56

56:                                               ; preds = %50, %41
  %57 = getelementptr inbounds nuw i8, ptr %5, i64 500
  store i32 1, ptr %57, align 4, !tbaa !58
  br label %.critedge

.critedge:                                        ; preds = %12, %13, %.thread50, %56, %.thread, %4
  %.0 = phi i32 [ 1, %4 ], [ 1, %.thread ], [ 1, %56 ], [ 0, %.thread50 ], [ 0, %13 ], [ 0, %12 ]
  ret i32 %.0
}